target datalayout = "e-m:e-p270:32:32-p271:32:32-p272:64:64-i64:64-i128:128-f80:128-n8:16:32:64-S128"
target triple = "x86_64-pc-linux-gnu"

%"struct.Luau::CodeGen::A64::RegisterA64" = type { i8 }
%"struct.Luau::CodeGen::A64::AddressA64" = type { i8, %"struct.Luau::CodeGen::A64::RegisterA64", %"struct.Luau::CodeGen::A64::RegisterA64", i32 }

@_ZN4Luau7CodeGen3A64L2x0E = internal constant %"struct.Luau::CodeGen::A64::RegisterA64" { i8 2 }, align 1
@_ZN4Luau7CodeGen3A64L5rCodeE = internal constant %"struct.Luau::CodeGen::A64::RegisterA64" { i8 -62 }, align 1
@_ZN4Luau7CodeGen3A64L3xzrE = internal constant %"struct.Luau::CodeGen::A64::RegisterA64" { i8 -6 }, align 1
@_ZN4Luau7CodeGen3A64L6rStateE = internal constant %"struct.Luau::CodeGen::A64::RegisterA64" { i8 -102 }, align 1
@_ZN4Luau7CodeGen3A64L2x1E = internal constant %"struct.Luau::CodeGen::A64::RegisterA64" { i8 10 }, align 1
@_ZN4Luau7CodeGen3A64L5rBaseE = internal constant %"struct.Luau::CodeGen::A64::RegisterA64" { i8 -54 }, align 1
@_ZN4Luau7CodeGen3A64L2x2E = internal constant %"struct.Luau::CodeGen::A64::RegisterA64" { i8 18 }, align 1
@_ZN4Luau7CodeGen3A64L2x3E = internal constant %"struct.Luau::CodeGen::A64::RegisterA64" { i8 26 }, align 1
@_ZN4Luau7CodeGen3A64L14rNativeContextE = internal constant %"struct.Luau::CodeGen::A64::RegisterA64" { i8 -94 }, align 1
@_ZN4Luau7CodeGen3A64L2x4E = internal constant %"struct.Luau::CodeGen::A64::RegisterA64" { i8 34 }, align 1
@_ZN4Luau7CodeGen3A64L10rConstantsE = internal constant %"struct.Luau::CodeGen::A64::RegisterA64" { i8 -78 }, align 1

; Function Attrs: inlinehint mustprogress uwtable
define linkonce_odr dso_local void @_ZN4Luau7CodeGen3A6414emitUpdateBaseERNS1_18AssemblyBuilderA64E(ptr noundef nonnull align 8 dereferenceable(176) %0) #6 comdat {
  %2 = alloca ptr, align 8
  %3 = alloca %"struct.Luau::CodeGen::A64::RegisterA64", align 1
  %4 = alloca %"struct.Luau::CodeGen::A64::AddressA64", align 4
  %5 = alloca %"struct.Luau::CodeGen::A64::RegisterA64", align 1
  store ptr %0, ptr %2, align 8, !tbaa !9
  %6 = load ptr, ptr %2, align 8, !tbaa !9
  call void @llvm.memcpy.p0.p0.i64(ptr align 1 %3, ptr align 1 @_ZN4Luau7CodeGen3A64L5rBaseE, i64 1, i1 false), !tbaa.struct !55
  call void @llvm.memcpy.p0.p0.i64(ptr align 1 %5, ptr align 1 @_ZN4Luau7CodeGen3A64L6rStateE, i64 1, i1 false), !tbaa.struct !55
  %7 = getelementptr inbounds nuw %"struct.Luau::CodeGen::A64::RegisterA64", ptr %5, i32 0, i32 0
  %8 = load i8, ptr %7, align 1
  call void @_ZN4Luau7CodeGen3A6410AddressA64C2ENS1_11RegisterA64EiNS1_14AddressKindA64E(ptr noundef nonnull align 4 dereferenceable(8) %4, i8 %8, i32 noundef 16, i8 noundef zeroext 1)
  %9 = getelementptr inbounds nuw %"struct.Luau::CodeGen::A64::RegisterA64", ptr %3, i32 0, i32 0
  %10 = load i8, ptr %9, align 1
  %11 = load i64, ptr %4, align 4
  call void @_ZN4Luau7CodeGen3A6418AssemblyBuilderA643ldrENS1_11RegisterA64ENS1_10AddressA64E(ptr noundef nonnull align 8 dereferenceable(176) %6, i8 %10, i64 %11)
  ret void
}

; Function Attrs: mustprogress nounwind uwtable
define linkonce_odr dso_local void @_ZN4Luau7CodeGen3A6410AddressA64C2ENS1_11RegisterA64EiNS1_14AddressKindA64E(ptr noundef nonnull align 4 dereferenceable(8) %0, i8 %1, i32 noundef %2, i8 noundef zeroext %3) unnamed_addr #2 comdat align 2 {
  %5 = alloca %"struct.Luau::CodeGen::A64::RegisterA64", align 1
  %6 = alloca ptr, align 8
  %7 = alloca i32, align 4
  %8 = alloca i8, align 1
  %9 = getelementptr inbounds nuw %"struct.Luau::CodeGen::A64::RegisterA64", ptr %5, i32 0, i32 0
  store i8 %1, ptr %9, align 1
  store ptr %0, ptr %6, align 8, !tbaa !202
  store i32 %2, ptr %7, align 4, !tbaa !50
  store i8 %3, ptr %8, align 1, !tbaa !90
  %10 = load ptr, ptr %6, align 8
  %11 = getelementptr inbounds nuw %"struct.Luau::CodeGen::A64::AddressA64", ptr %10, i32 0, i32 0
  %12 = load i8, ptr %8, align 1, !tbaa !90
  store i8 %12, ptr %11, align 4, !tbaa !204
  %13 = getelementptr inbounds nuw %"struct.Luau::CodeGen::A64::AddressA64", ptr %10, i32 0, i32 1
  call void @llvm.memcpy.p0.p0.i64(ptr align 1 %13, ptr align 1 %5, i64 1, i1 false), !tbaa.struct !55
  %14 = getelementptr inbounds nuw %"struct.Luau::CodeGen::A64::AddressA64", ptr %10, i32 0, i32 2
  call void @llvm.memcpy.p0.p0.i64(ptr align 2 %14, ptr align 1 @_ZN4Luau7CodeGen3A64L3xzrE, i64 1, i1 false), !tbaa.struct !55
  %15 = getelementptr inbounds nuw %"struct.Luau::CodeGen::A64::AddressA64", ptr %10, i32 0, i32 3
  %16 = load i32, ptr %7, align 4, !tbaa !50
  store i32 %16, ptr %15, align 4, !tbaa !96
  ret void
}

; Function Attrs: mustprogress uwtable
define internal void @_ZN4Luau7CodeGen3A64L13emitAddOffsetERNS1_18AssemblyBuilderA64ENS1_11RegisterA64ES4_m(ptr noundef nonnull align 8 dereferenceable(176) %0, i8 %1, i8 %2, i64 noundef %3) #0 {
  %5 = alloca %"struct.Luau::CodeGen::A64::RegisterA64", align 1
  %6 = alloca %"struct.Luau::CodeGen::A64::RegisterA64", align 1
  %7 = alloca ptr, align 8
  %8 = alloca i64, align 8
  %9 = alloca %"struct.Luau::CodeGen::A64::RegisterA64", align 1
  %10 = alloca %"struct.Luau::CodeGen::A64::RegisterA64", align 1
  %11 = alloca %"struct.Luau::CodeGen::A64::RegisterA64", align 1
  %12 = alloca %"struct.Luau::CodeGen::A64::RegisterA64", align 1
  %13 = alloca %"struct.Luau::CodeGen::A64::RegisterA64", align 1
  %14 = alloca %"struct.Luau::CodeGen::A64::RegisterA64", align 1
  %15 = getelementptr inbounds nuw %"struct.Luau::CodeGen::A64::RegisterA64", ptr %5, i32 0, i32 0
  store i8 %1, ptr %15, align 1
  %16 = getelementptr inbounds nuw %"struct.Luau::CodeGen::A64::RegisterA64", ptr %6, i32 0, i32 0
  store i8 %2, ptr %16, align 1
  store ptr %0, ptr %7, align 8, !tbaa !9
  store i64 %3, ptr %8, align 8, !tbaa !65
  %17 = load i64, ptr %8, align 8, !tbaa !65
  %18 = icmp ule i64 %17, 4095
  br i1 %18, label %19, label %27

19:                                               ; preds = %4
  %20 = load ptr, ptr %7, align 8, !tbaa !9
  call void @llvm.memcpy.p0.p0.i64(ptr align 1 %9, ptr align 1 %5, i64 1, i1 false), !tbaa.struct !55
  call void @llvm.memcpy.p0.p0.i64(ptr align 1 %10, ptr align 1 %6, i64 1, i1 false), !tbaa.struct !55
  %21 = load i64, ptr %8, align 8, !tbaa !65
  %22 = trunc i64 %21 to i16
  %23 = getelementptr inbounds nuw %"struct.Luau::CodeGen::A64::RegisterA64", ptr %9, i32 0, i32 0
  %24 = load i8, ptr %23, align 1
  %25 = getelementptr inbounds nuw %"struct.Luau::CodeGen::A64::RegisterA64", ptr %10, i32 0, i32 0
  %26 = load i8, ptr %25, align 1
  call void @_ZN4Luau7CodeGen3A6418AssemblyBuilderA643addENS1_11RegisterA64ES3_t(ptr noundef nonnull align 8 dereferenceable(176) %20, i8 %24, i8 %26, i16 noundef zeroext %22)
  br label %40

27:                                               ; preds = %4
  %28 = load ptr, ptr %7, align 8, !tbaa !9
  call void @llvm.memcpy.p0.p0.i64(ptr align 1 %11, ptr align 1 %5, i64 1, i1 false), !tbaa.struct !55
  %29 = load i64, ptr %8, align 8, !tbaa !65
  %30 = trunc i64 %29 to i32
  %31 = getelementptr inbounds nuw %"struct.Luau::CodeGen::A64::RegisterA64", ptr %11, i32 0, i32 0
  %32 = load i8, ptr %31, align 1
  call void @_ZN4Luau7CodeGen3A6418AssemblyBuilderA643movENS1_11RegisterA64Ei(ptr noundef nonnull align 8 dereferenceable(176) %28, i8 %32, i32 noundef %30)
  %33 = load ptr, ptr %7, align 8, !tbaa !9
  call void @llvm.memcpy.p0.p0.i64(ptr align 1 %12, ptr align 1 %5, i64 1, i1 false), !tbaa.struct !55
  call void @llvm.memcpy.p0.p0.i64(ptr align 1 %13, ptr align 1 %5, i64 1, i1 false), !tbaa.struct !55
  call void @llvm.memcpy.p0.p0.i64(ptr align 1 %14, ptr align 1 %6, i64 1, i1 false), !tbaa.struct !55
  %34 = getelementptr inbounds nuw %"struct.Luau::CodeGen::A64::RegisterA64", ptr %12, i32 0, i32 0
  %35 = load i8, ptr %34, align 1
  %36 = getelementptr inbounds nuw %"struct.Luau::CodeGen::A64::RegisterA64", ptr %13, i32 0, i32 0
  %37 = load i8, ptr %36, align 1
  %38 = getelementptr inbounds nuw %"struct.Luau::CodeGen::A64::RegisterA64", ptr %14, i32 0, i32 0
  %39 = load i8, ptr %38, align 1
  call void @_ZN4Luau7CodeGen3A6418AssemblyBuilderA643addENS1_11RegisterA64ES3_S3_i(ptr noundef nonnull align 8 dereferenceable(176) %33, i8 %35, i8 %37, i8 %39, i32 noundef 0)
  br label %40

40:                                               ; preds = %27, %19
  ret void
}

; Function Attrs: mustprogress uwtable
define internal void @_ZN4Luau7CodeGen3A64L12emitFallbackERNS1_18AssemblyBuilderA64Eii(ptr noundef nonnull align 8 dereferenceable(176) %0, i32 noundef %1, i32 noundef %2) #0 {
  %4 = alloca ptr, align 8
  %5 = alloca i32, align 4
  %6 = alloca i32, align 4
  %7 = alloca %"struct.Luau::CodeGen::A64::RegisterA64", align 1
  %8 = alloca %"struct.Luau::CodeGen::A64::RegisterA64", align 1
  %9 = alloca %"struct.Luau::CodeGen::A64::RegisterA64", align 1
  %10 = alloca %"struct.Luau::CodeGen::A64::RegisterA64", align 1
  %11 = alloca %"struct.Luau::CodeGen::A64::RegisterA64", align 1
  %12 = alloca %"struct.Luau::CodeGen::A64::RegisterA64", align 1
  %13 = alloca %"struct.Luau::CodeGen::A64::RegisterA64", align 1
  %14 = alloca %"struct.Luau::CodeGen::A64::RegisterA64", align 1
  %15 = alloca %"struct.Luau::CodeGen::A64::RegisterA64", align 1
  %16 = alloca %"struct.Luau::CodeGen::A64::AddressA64", align 4
  %17 = alloca %"struct.Luau::CodeGen::A64::RegisterA64", align 1
  %18 = alloca %"struct.Luau::CodeGen::A64::RegisterA64", align 1
  store ptr %0, ptr %4, align 8, !tbaa !9
  store i32 %1, ptr %5, align 4, !tbaa !50
  store i32 %2, ptr %6, align 4, !tbaa !50
  %19 = load ptr, ptr %4, align 8, !tbaa !9
  call void @llvm.memcpy.p0.p0.i64(ptr align 1 %7, ptr align 1 @_ZN4Luau7CodeGen3A64L2x0E, i64 1, i1 false), !tbaa.struct !55
  call void @llvm.memcpy.p0.p0.i64(ptr align 1 %8, ptr align 1 @_ZN4Luau7CodeGen3A64L6rStateE, i64 1, i1 false), !tbaa.struct !55
  %20 = getelementptr inbounds nuw %"struct.Luau::CodeGen::A64::RegisterA64", ptr %7, i32 0, i32 0
  %21 = load i8, ptr %20, align 1
  %22 = getelementptr inbounds nuw %"struct.Luau::CodeGen::A64::RegisterA64", ptr %8, i32 0, i32 0
  %23 = load i8, ptr %22, align 1
  call void @_ZN4Luau7CodeGen3A6418AssemblyBuilderA643movENS1_11RegisterA64ES3_(ptr noundef nonnull align 8 dereferenceable(176) %19, i8 %21, i8 %23)
  %24 = load ptr, ptr %4, align 8, !tbaa !9
  call void @llvm.memcpy.p0.p0.i64(ptr align 1 %9, ptr align 1 @_ZN4Luau7CodeGen3A64L2x1E, i64 1, i1 false), !tbaa.struct !55
  call void @llvm.memcpy.p0.p0.i64(ptr align 1 %10, ptr align 1 @_ZN4Luau7CodeGen3A64L5rCodeE, i64 1, i1 false), !tbaa.struct !55
  %25 = load i32, ptr %6, align 4, !tbaa !50
  %26 = sext i32 %25 to i64
  %27 = mul i64 %26, 4
  %28 = getelementptr inbounds nuw %"struct.Luau::CodeGen::A64::RegisterA64", ptr %9, i32 0, i32 0
  %29 = load i8, ptr %28, align 1
  %30 = getelementptr inbounds nuw %"struct.Luau::CodeGen::A64::RegisterA64", ptr %10, i32 0, i32 0
  %31 = load i8, ptr %30, align 1
  call void @_ZN4Luau7CodeGen3A64L13emitAddOffsetERNS1_18AssemblyBuilderA64ENS1_11RegisterA64ES4_m(ptr noundef nonnull align 8 dereferenceable(176) %24, i8 %29, i8 %31, i64 noundef %27)
  %32 = load ptr, ptr %4, align 8, !tbaa !9
  call void @llvm.memcpy.p0.p0.i64(ptr align 1 %11, ptr align 1 @_ZN4Luau7CodeGen3A64L2x2E, i64 1, i1 false), !tbaa.struct !55
  call void @llvm.memcpy.p0.p0.i64(ptr align 1 %12, ptr align 1 @_ZN4Luau7CodeGen3A64L5rBaseE, i64 1, i1 false), !tbaa.struct !55
  %33 = getelementptr inbounds nuw %"struct.Luau::CodeGen::A64::RegisterA64", ptr %11, i32 0, i32 0
  %34 = load i8, ptr %33, align 1
  %35 = getelementptr inbounds nuw %"struct.Luau::CodeGen::A64::RegisterA64", ptr %12, i32 0, i32 0
  %36 = load i8, ptr %35, align 1
  call void @_ZN4Luau7CodeGen3A6418AssemblyBuilderA643movENS1_11RegisterA64ES3_(ptr noundef nonnull align 8 dereferenceable(176) %32, i8 %34, i8 %36)
  %37 = load ptr, ptr %4, align 8, !tbaa !9
  call void @llvm.memcpy.p0.p0.i64(ptr align 1 %13, ptr align 1 @_ZN4Luau7CodeGen3A64L2x3E, i64 1, i1 false), !tbaa.struct !55
  call void @llvm.memcpy.p0.p0.i64(ptr align 1 %14, ptr align 1 @_ZN4Luau7CodeGen3A64L10rConstantsE, i64 1, i1 false), !tbaa.struct !55
  %38 = getelementptr inbounds nuw %"struct.Luau::CodeGen::A64::RegisterA64", ptr %13, i32 0, i32 0
  %39 = load i8, ptr %38, align 1
  %40 = getelementptr inbounds nuw %"struct.Luau::CodeGen::A64::RegisterA64", ptr %14, i32 0, i32 0
  %41 = load i8, ptr %40, align 1
  call void @_ZN4Luau7CodeGen3A6418AssemblyBuilderA643movENS1_11RegisterA64ES3_(ptr noundef nonnull align 8 dereferenceable(176) %37, i8 %39, i8 %41)
  %42 = load ptr, ptr %4, align 8, !tbaa !9
  call void @llvm.memcpy.p0.p0.i64(ptr align 1 %15, ptr align 1 @_ZN4Luau7CodeGen3A64L2x4E, i64 1, i1 false), !tbaa.struct !55
  call void @llvm.memcpy.p0.p0.i64(ptr align 1 %17, ptr align 1 @_ZN4Luau7CodeGen3A64L14rNativeContextE, i64 1, i1 false), !tbaa.struct !55
  %43 = load i32, ptr %5, align 4, !tbaa !50
  %44 = getelementptr inbounds nuw %"struct.Luau::CodeGen::A64::RegisterA64", ptr %17, i32 0, i32 0
  %45 = load i8, ptr %44, align 1
  call void @_ZN4Luau7CodeGen3A6410AddressA64C2ENS1_11RegisterA64EiNS1_14AddressKindA64E(ptr noundef nonnull align 4 dereferenceable(8) %16, i8 %45, i32 noundef %43, i8 noundef zeroext 1)
  %46 = getelementptr inbounds nuw %"struct.Luau::CodeGen::A64::RegisterA64", ptr %15, i32 0, i32 0
  %47 = load i8, ptr %46, align 1
  %48 = load i64, ptr %16, align 4
  call void @_ZN4Luau7CodeGen3A6418AssemblyBuilderA643ldrENS1_11RegisterA64ENS1_10AddressA64E(ptr noundef nonnull align 8 dereferenceable(176) %42, i8 %47, i64 %48)
  %49 = load ptr, ptr %4, align 8, !tbaa !9
  call void @llvm.memcpy.p0.p0.i64(ptr align 1 %18, ptr align 1 @_ZN4Luau7CodeGen3A64L2x4E, i64 1, i1 false), !tbaa.struct !55
  %50 = getelementptr inbounds nuw %"struct.Luau::CodeGen::A64::RegisterA64", ptr %18, i32 0, i32 0
  %51 = load i8, ptr %50, align 1
  call void @_ZN4Luau7CodeGen3A6418AssemblyBuilderA643blrENS1_11RegisterA64E(ptr noundef nonnull align 8 dereferenceable(176) %49, i8 %51)
  %52 = load ptr, ptr %4, align 8, !tbaa !9
  call void @_ZN4Luau7CodeGen3A6414emitUpdateBaseERNS1_18AssemblyBuilderA64E(ptr noundef nonnull align 8 dereferenceable(176) %52)
  ret void
}