; Function Attrs: mustprogress uwtable
define internal fastcc void @_ZN4Luau7CodeGen3A64L12emitFallbackERNS1_18AssemblyBuilderA64Eii(ptr noundef nonnull align 8 dereferenceable(176) %0, i32 noundef range(i32 480, 561) %1, i32 noundef %2) unnamed_addr #0 {
  tail call void @_ZN4Luau7CodeGen3A6418AssemblyBuilderA643movENS1_11RegisterA64ES3_(ptr noundef nonnull align 8 dereferenceable(176) %0, i8 2, i8 -102)
  %4 = sext i32 %2 to i64
  %5 = shl nsw i64 %4, 2
  %6 = icmp ult i64 %5, 4096
  br i1 %6, label %7, label %9

7:                                                ; preds = %3
  %8 = trunc nuw nsw i64 %5 to i16
  tail call void @_ZN4Luau7CodeGen3A6418AssemblyBuilderA643addENS1_11RegisterA64ES3_t(ptr noundef nonnull align 8 dereferenceable(176) %0, i8 10, i8 -62, i16 noundef zeroext %8)
  br label %_ZN4Luau7CodeGen3A64L13emitAddOffsetERNS1_18AssemblyBuilderA64ENS1_11RegisterA64ES4_m.exit

9:                                                ; preds = %3
  %10 = trunc i64 %5 to i32
  tail call void @_ZN4Luau7CodeGen3A6418AssemblyBuilderA643movENS1_11RegisterA64Ei(ptr noundef nonnull align 8 dereferenceable(176) %0, i8 10, i32 noundef %10)
  tail call void @_ZN4Luau7CodeGen3A6418AssemblyBuilderA643addENS1_11RegisterA64ES3_S3_i(ptr noundef nonnull align 8 dereferenceable(176) %0, i8 10, i8 10, i8 -62, i32 noundef 0)
  br label %_ZN4Luau7CodeGen3A64L13emitAddOffsetERNS1_18AssemblyBuilderA64ENS1_11RegisterA64ES4_m.exit

_ZN4Luau7CodeGen3A64L13emitAddOffsetERNS1_18AssemblyBuilderA64ENS1_11RegisterA64ES4_m.exit: ; preds = %7, %9
  tail call void @_ZN4Luau7CodeGen3A6418AssemblyBuilderA643movENS1_11RegisterA64ES3_(ptr noundef nonnull align 8 dereferenceable(176) %0, i8 18, i8 -54)
  tail call void @_ZN4Luau7CodeGen3A6418AssemblyBuilderA643movENS1_11RegisterA64ES3_(ptr noundef nonnull align 8 dereferenceable(176) %0, i8 26, i8 -78)
  %.sroa.418.0.insert.ext = zext nneg i32 %1 to i64
  %.sroa.418.0.insert.shift = shl nuw nsw i64 %.sroa.418.0.insert.ext, 32
  %.sroa.0.0.insert.insert = or disjoint i64 %.sroa.418.0.insert.shift, 16425473
  tail call void @_ZN4Luau7CodeGen3A6418AssemblyBuilderA643ldrENS1_11RegisterA64ENS1_10AddressA64E(ptr noundef nonnull align 8 dereferenceable(176) %0, i8 34, i64 %.sroa.0.0.insert.insert)
  tail call void @_ZN4Luau7CodeGen3A6418AssemblyBuilderA643blrENS1_11RegisterA64E(ptr noundef nonnull align 8 dereferenceable(176) %0, i8 34)
  tail call void @_ZN4Luau7CodeGen3A6418AssemblyBuilderA643ldrENS1_11RegisterA64ENS1_10AddressA64E(ptr noundef nonnull align 8 dereferenceable(176) %0, i8 -54, i64 68735900161)
  ret void
}